; Function Attrs: nounwind uwtable
define hidden void @zim_SplFixedArray_offsetUnset(ptr nocapture noundef readonly %0, ptr nocapture readnone %1) #0 {
  %3 = alloca ptr, align 8
  %4 = getelementptr inbounds i8, ptr %0, i64 44
  %5 = load i32, ptr %4, align 4
  %6 = call i32 (i32, ptr, ...) @zend_parse_parameters(i32 noundef %5, ptr noundef nonnull @.str.7, ptr noundef nonnull %3) #12
  %7 = icmp eq i32 %6, -1
  br i1 %7, label %8, label %11

8:                                                ; preds = %2
  %9 = load ptr, ptr getelementptr inbounds (%struct._zend_executor_globals, ptr @executor_globals, i64 0, i32 50), align 8
  %10 = icmp ne ptr %9, null
  call void @llvm.assume(i1 %10)
  br label %spl_fixedarray_object_unset_dimension_helper.exit

11:                                               ; preds = %2
  %12 = getelementptr inbounds i8, ptr %0, i64 32
  %13 = load ptr, ptr %12, align 8
  %14 = getelementptr inbounds i8, ptr %13, i64 -32
  %15 = load ptr, ptr %3, align 8
  %16 = call fastcc i64 @spl_offset_convert_to_long(ptr noundef %15)
  %17 = load ptr, ptr getelementptr inbounds (%struct._zend_executor_globals, ptr @executor_globals, i64 0, i32 50), align 8
  %.not.i = icmp eq ptr %17, null
  br i1 %.not.i, label %18, label %spl_fixedarray_object_unset_dimension_helper.exit

18:                                               ; preds = %11
  %19 = icmp slt i64 %16, 0
  br i1 %19, label %22, label %20

20:                                               ; preds = %18
  %21 = load i64, ptr %14, align 8
  %.not7.i = icmp slt i64 %16, %21
  br i1 %.not7.i, label %25, label %22

22:                                               ; preds = %20, %18
  %23 = load ptr, ptr @spl_ce_OutOfBoundsException, align 8
  %24 = call ptr @zend_throw_exception(ptr noundef %23, ptr noundef nonnull @.str.10, i64 noundef 0) #12
  br label %spl_fixedarray_object_unset_dimension_helper.exit

25:                                               ; preds = %20
  %26 = getelementptr inbounds i8, ptr %13, i64 -24
  %27 = load ptr, ptr %26, align 8
  %28 = getelementptr inbounds %struct._zval_struct, ptr %27, i64 %16
  call void @zval_ptr_dtor(ptr noundef %28) #12
  %29 = load ptr, ptr %26, align 8
  %30 = getelementptr inbounds %struct._zval_struct, ptr %29, i64 %16, i32 1
  store i32 1, ptr %30, align 8
  br label %spl_fixedarray_object_unset_dimension_helper.exit

spl_fixedarray_object_unset_dimension_helper.exit: ; preds = %25, %22, %11, %8
  ret void
}